; Function Attrs: mustprogress nounwind uwtable
define dso_local noundef zeroext i1 @_ZN4llvm31DXILMetadataAnalysisWrapperPass11runOnModuleERNS_6ModuleE(ptr nocapture noundef nonnull align 8 dereferenceable(40) %0, ptr noundef nonnull align 8 dereferenceable(857) %1) unnamed_addr #0 align 2 {
  %3 = getelementptr inbounds nuw i8, ptr %0, i64 32
  %4 = tail call noalias noundef nonnull dereferenceable(120) ptr @_Znwm(i64 noundef 120) #15
  tail call fastcc void @_ZL19collectMetadataInfoRN4llvm6ModuleE(ptr dead_on_unwind noalias nonnull writable align 8 %4, ptr noundef nonnull align 8 dereferenceable(857) %1)
  %5 = load ptr, ptr %3, align 8
  store ptr %4, ptr %3, align 8
  %.not.i.i = icmp eq ptr %5, null
  br i1 %.not.i.i, label %_ZNSt10unique_ptrIN4llvm4dxil18ModuleMetadataInfoESt14default_deleteIS2_EE5resetEPS2_.exit, label %6

6:                                                ; preds = %2
  %7 = getelementptr inbounds nuw i8, ptr %5, i64 56
  %8 = tail call noundef i64 @_ZNK4llvm15SmallVectorBaseIjE4sizeEv(ptr noundef nonnull align 8 dereferenceable(16) %7) #12
  %9 = load ptr, ptr %7, align 8
  %10 = getelementptr inbounds i8, ptr %5, i64 72
  %11 = icmp eq ptr %9, %10
  br i1 %11, label %_ZNKSt14default_deleteIN4llvm4dxil18ModuleMetadataInfoEEclEPS2_.exit.i.i, label %12

12:                                               ; preds = %6
  tail call void @free(ptr noundef %9) #12
  br label %_ZNKSt14default_deleteIN4llvm4dxil18ModuleMetadataInfoEEclEPS2_.exit.i.i

_ZNKSt14default_deleteIN4llvm4dxil18ModuleMetadataInfoEEclEPS2_.exit.i.i: ; preds = %12, %6
  tail call void @_ZdlPvm(ptr noundef nonnull %5, i64 noundef 120) #14
  br label %_ZNSt10unique_ptrIN4llvm4dxil18ModuleMetadataInfoESt14default_deleteIS2_EE5resetEPS2_.exit

_ZNSt10unique_ptrIN4llvm4dxil18ModuleMetadataInfoESt14default_deleteIS2_EE5resetEPS2_.exit: ; preds = %2, %_ZNKSt14default_deleteIN4llvm4dxil18ModuleMetadataInfoEEclEPS2_.exit.i.i
  ret i1 false
}